; Function Attrs: null_pointer_is_valid sspstrong uwtable
define ptr @ws_escape_string(ptr noundef %0, ptr noundef readonly captures(none) %1, i1 noundef zeroext %2) local_unnamed_addr #0 {
  %4 = tail call i64 @strlen(ptr noundef readonly %1) #24
  %5 = add i64 %4, 2
  %spec.select.i = select i1 %2, i64 %5, i64 %4
  %6 = tail call noalias ptr @wmem_strbuf_new_sized(ptr noundef %0, i64 noundef %spec.select.i)
  br i1 %2, label %7, label %8

7:                                                ; preds = %3
  tail call void @wmem_strbuf_append_c(ptr noundef %6, i8 noundef signext 34)
  br label %8

8:                                                ; preds = %7, %3
  %9 = icmp sgt i64 %4, 0
  br i1 %9, label %.lr.ph.split.split.i, label %._crit_edge.i

.lr.ph.split.split.i:                             ; preds = %8, %20
  %.056.i = phi i64 [ %21, %20 ], [ 0, %8 ]
  %10 = getelementptr i8, ptr %1, i64 %.056.i
  %11 = load i8, ptr %10, align 1
  switch i8 %11, label %20 [
    i8 7, label %19
    i8 8, label %.sink.split
    i8 12, label %12
    i8 10, label %13
    i8 13, label %14
    i8 9, label %15
    i8 11, label %16
    i8 92, label %17
    i8 0, label %18
    i8 34, label %17
  ]

12:                                               ; preds = %.lr.ph.split.split.i
  br label %.sink.split

13:                                               ; preds = %.lr.ph.split.split.i
  br label %.sink.split

14:                                               ; preds = %.lr.ph.split.split.i
  br label %.sink.split

15:                                               ; preds = %.lr.ph.split.split.i
  br label %.sink.split

16:                                               ; preds = %.lr.ph.split.split.i
  br label %.sink.split

17:                                               ; preds = %.lr.ph.split.split.i, %.lr.ph.split.split.i
  br label %.sink.split

18:                                               ; preds = %.lr.ph.split.split.i
  br label %.sink.split

19:                                               ; preds = %.lr.ph.split.split.i
  br label %.sink.split

.sink.split:                                      ; preds = %19, %12, %13, %14, %15, %16, %17, %18, %.lr.ph.split.split.i
  %.sink67.i.ph = phi i8 [ 97, %19 ], [ 48, %18 ], [ %11, %17 ], [ 118, %16 ], [ 116, %15 ], [ 114, %14 ], [ 110, %13 ], [ 102, %12 ], [ 98, %.lr.ph.split.split.i ]
  tail call void @wmem_strbuf_append_c(ptr noundef %6, i8 noundef signext 92)
  br label %20

20:                                               ; preds = %.sink.split, %.lr.ph.split.split.i
  %.sink67.i = phi i8 [ %11, %.lr.ph.split.split.i ], [ %.sink67.i.ph, %.sink.split ]
  tail call void @wmem_strbuf_append_c(ptr noundef %6, i8 noundef signext %.sink67.i)
  %21 = add nuw nsw i64 %.056.i, 1
  %exitcond62.not.i = icmp eq i64 %21, %4
  br i1 %exitcond62.not.i, label %._crit_edge.i, label %.lr.ph.split.split.i, !llvm.loop !27

._crit_edge.i:                                    ; preds = %20, %8
  br i1 %2, label %22, label %escape_string_len.exit

22:                                               ; preds = %._crit_edge.i
  tail call void @wmem_strbuf_append_c(ptr noundef %6, i8 noundef signext 34)
  br label %escape_string_len.exit

escape_string_len.exit:                           ; preds = %._crit_edge.i, %22
  %23 = tail call ptr @wmem_strbuf_finalize(ptr noundef %6)
  ret ptr %23
}